; Function Attrs: mustprogress uwtable
define void @_ZNK6casadi17GetNonzerosVector7eval_mxERKSt6vectorINS_2MXESaIS2_EERS4_(ptr noundef nonnull align 8 dereferenceable(88) %0, ptr nocapture noundef nonnull readonly align 8 dereferenceable(24) %1, ptr nocapture noundef nonnull readonly align 8 dereferenceable(24) %2) unnamed_addr #3 align 2 personality ptr @__gxx_personality_v0 {
  %4 = alloca %"class.casadi::MX", align 8
  %5 = getelementptr inbounds i8, ptr %0, i64 32
  %6 = getelementptr inbounds i8, ptr %0, i64 40
  %7 = load ptr, ptr %6, align 8
  %8 = load ptr, ptr %5, align 8
  %9 = icmp eq ptr %7, %8
  br i1 %9, label %.loopexit, label %.lr.ph.i

10:                                               ; preds = %.lr.ph.i
  %11 = add nuw nsw i64 %.07.i, 1
  %12 = load ptr, ptr %6, align 8
  %13 = load ptr, ptr %5, align 8
  %14 = ptrtoint ptr %12 to i64
  %15 = ptrtoint ptr %13 to i64
  %16 = sub i64 %14, %15
  %17 = ashr exact i64 %16, 3
  %.not.i = icmp ult i64 %11, %17
  br i1 %.not.i, label %.lr.ph.i, label %.loopexit, !llvm.loop !7

.lr.ph.i:                                         ; preds = %3, %10
  %18 = phi ptr [ %13, %10 ], [ %8, %3 ]
  %.07.i = phi i64 [ %11, %10 ], [ 0, %3 ]
  %19 = getelementptr inbounds %"class.casadi::MX", ptr %18, i64 %.07.i
  %20 = tail call noundef nonnull align 8 dereferenceable(8) ptr @_ZNK6casadi2MX8sparsityEv(ptr noundef nonnull align 8 dereferenceable(8) %19)
  %21 = load ptr, ptr %1, align 8
  %22 = getelementptr inbounds %"class.casadi::MX", ptr %21, i64 %.07.i
  %23 = tail call noundef nonnull align 8 dereferenceable(8) ptr @_ZNK6casadi2MX8sparsityEv(ptr noundef nonnull align 8 dereferenceable(8) %22)
  %24 = tail call noundef zeroext i1 @_ZNK6casadi8Sparsity8is_equalERKS0_(ptr noundef nonnull align 8 dereferenceable(8) %20, ptr noundef nonnull align 8 dereferenceable(8) %23)
  br i1 %24, label %10, label %_ZNK6casadi6MXNode16matches_sparsityINS_2MXEEEbRKSt6vectorIT_SaIS4_EE.exit

_ZNK6casadi6MXNode16matches_sparsityINS_2MXEEEbRKSt6vectorIT_SaIS4_EE.exit: ; preds = %.lr.ph.i
  tail call void @_ZNK6casadi11GetNonzeros7eval_mxERKSt6vectorINS_2MXESaIS2_EERS4_(ptr noundef nonnull align 8 dereferenceable(64) %0, ptr noundef nonnull align 8 dereferenceable(24) %1, ptr noundef nonnull align 8 dereferenceable(24) %2)
  br label %34

.loopexit:                                        ; preds = %10, %3
  %25 = load ptr, ptr %1, align 8
  %26 = tail call noundef ptr @_ZNK6casadi2MXptEv(ptr noundef nonnull align 8 dereferenceable(8) %25)
  %27 = getelementptr inbounds i8, ptr %0, i64 56
  %28 = getelementptr inbounds i8, ptr %0, i64 64
  %29 = load ptr, ptr %26, align 8
  %30 = getelementptr inbounds i8, ptr %29, i64 616
  %31 = load ptr, ptr %30, align 8
  call void %31(ptr dead_on_unwind nonnull writable sret(%"class.casadi::MX") align 8 %4, ptr noundef nonnull align 8 dereferenceable(64) %26, ptr noundef nonnull align 8 dereferenceable(8) %27, ptr noundef nonnull align 8 dereferenceable(24) %28)
  %32 = load ptr, ptr %2, align 8
  %33 = invoke noundef nonnull align 8 dereferenceable(8) ptr @_ZN6casadi12SharedObjectaSERKS0_(ptr noundef nonnull align 8 dereferenceable(8) %32, ptr noundef nonnull align 8 dereferenceable(8) %4)
          to label %_ZN6casadi2MXaSERKS0_.exit unwind label %35

_ZN6casadi2MXaSERKS0_.exit:                       ; preds = %.loopexit
  call void @_ZN6casadi2MXD1Ev(ptr noundef nonnull align 8 dereferenceable(8) %4) #22
  br label %34

34:                                               ; preds = %_ZN6casadi2MXaSERKS0_.exit, %_ZNK6casadi6MXNode16matches_sparsityINS_2MXEEEbRKSt6vectorIT_SaIS4_EE.exit
  ret void

35:                                               ; preds = %.loopexit
  %36 = landingpad { ptr, i32 }
          cleanup
  call void @_ZN6casadi2MXD1Ev(ptr noundef nonnull align 8 dereferenceable(8) %4) #22
  resume { ptr, i32 } %36
}